target datalayout = "e-m:e-p270:32:32-p271:32:32-p272:64:64-i64:64-i128:128-f80:128-n8:16:32:64-S128"
target triple = "x86_64-pc-linux-gnu"

%struct.h5tools_context_t = type { i64, i64, i32, i32, [32 x i64], [32 x i64], i32, i64, i32, i64, i32, i32, [32 x i64], [32 x i64], i64, ptr, ptr, i32, i32 }
%struct.h5tool_format_t = type { i8, ptr, ptr, ptr, ptr, ptr, ptr, ptr, ptr, ptr, ptr, ptr, ptr, ptr, ptr, ptr, ptr, ptr, i32, i32, i32, ptr, ptr, ptr, i32, ptr, ptr, ptr, ptr, ptr, ptr, ptr, ptr, ptr, ptr, ptr, ptr, ptr, ptr, ptr, ptr, i32, i64, ptr, ptr, ptr, ptr, ptr, i32, ptr, i32, i32, ptr, i32, ptr, ptr, ptr, ptr, i32, i32 }
%struct.subset_t = type { %struct.subset_d, %struct.subset_d, %struct.subset_d, %struct.subset_d }
%struct.subset_d = type { ptr, i32 }

@stdout = external global ptr, align 8
@g_listv = internal global ptr null, align 8
@g_display_width = internal global i32 80, align 4
@g_simple_output = internal global i8 0, align 1
@g_label = internal global i8 0, align 1
@.str.53 = private unnamed_addr constant [2 x i8] c"\0A\00", align 1
@doprint.fmt_ldouble = internal global [16 x i8] zeroinitializer, align 16
@doprint.fmt_double = internal global [16 x i8] zeroinitializer, align 16
@doprint.fmt_float = internal global [16 x i8] zeroinitializer, align 16
@doprint.fmt_ldouble_complex = internal global [32 x i8] zeroinitializer, align 16
@doprint.fmt_double_complex = internal global [32 x i8] zeroinitializer, align 16
@doprint.fmt_float_complex = internal global [16 x i8] zeroinitializer, align 16
@.str.107 = private unnamed_addr constant [1 x i8] zeroinitializer, align 1
@.str.108 = private unnamed_addr constant [9 x i8] c"        \00", align 1
@.str.109 = private unnamed_addr constant [10 x i8] c"         \00", align 1
@.str.110 = private unnamed_addr constant [2 x i8] c" \00", align 1
@.str.111 = private unnamed_addr constant [4 x i8] c"%s=\00", align 1
@.str.112 = private unnamed_addr constant [5 x i8] c"(%s)\00", align 1
@.str.113 = private unnamed_addr constant [12 x i8] c"        %s \00", align 1
@.str.114 = private unnamed_addr constant [13 x i8] c"        %s  \00", align 1
@.str.115 = private unnamed_addr constant [8 x i8] c"%%1.%dg\00", align 1
@.str.116 = private unnamed_addr constant [9 x i8] c"%%1.%dLg\00", align 1
@.str.117 = private unnamed_addr constant [17 x i8] c"%%1.%dg%%+1.%dgi\00", align 1
@.str.118 = private unnamed_addr constant [19 x i8] c"%%1.%dLg%%+1.%dLgi\00", align 1
@.str.119 = private unnamed_addr constant [9 x i8] c"DSET-%s \00", align 1
@.str.120 = private unnamed_addr constant [9 x i8] c"-%lu:%lu\00", align 1
@.str.121 = private unnamed_addr constant [11 x i8] c"%sBlk%lu: \00", align 1
@.str.122 = private unnamed_addr constant [10 x i8] c"%sPt%lu: \00", align 1
@g_display_hex = internal global i8 0, align 1
@.str.123 = private unnamed_addr constant [22 x i8] c"unable to print data\0A\00", align 1

; Function Attrs: nounwind uwtable
define internal i32 @doprint(i64 noundef %0, ptr noundef %1, ptr noundef %2, i32 noundef %3) #0 {
  %5 = alloca i64, align 8
  %6 = alloca ptr, align 8
  %7 = alloca ptr, align 8
  %8 = alloca i32, align 4
  %9 = alloca %struct.h5tools_context_t, align 8
  %10 = alloca %struct.h5tool_format_t, align 8
  %11 = alloca %struct.subset_t, align 8
  %12 = alloca [32 x i64], align 16
  %13 = alloca [32 x i64], align 16
  %14 = alloca [32 x i64], align 16
  %15 = alloca [32 x i64], align 16
  %16 = alloca i32, align 4
  %17 = alloca i32, align 4
  store i64 %0, ptr %5, align 8, !tbaa !13
  store ptr %1, ptr %6, align 8, !tbaa !35
  store ptr %2, ptr %7, align 8, !tbaa !35
  store i32 %3, ptr %8, align 4, !tbaa !4
  call void @llvm.lifetime.start.p0(i64 1120, ptr %9) #11
  call void @llvm.lifetime.start.p0(i64 456, ptr %10) #11
  call void @llvm.lifetime.start.p0(i64 64, ptr %11) #11
  call void @llvm.lifetime.start.p0(i64 256, ptr %12) #11
  call void @llvm.lifetime.start.p0(i64 256, ptr %13) #11
  call void @llvm.lifetime.start.p0(i64 256, ptr %14) #11
  call void @llvm.lifetime.start.p0(i64 256, ptr %15) #11
  call void @llvm.lifetime.start.p0(i64 4, ptr %16) #11
  call void @llvm.lifetime.start.p0(i64 4, ptr %17) #11
  store i32 0, ptr %17, align 4, !tbaa !4
  %18 = getelementptr inbounds [32 x i64], ptr %12, i64 0, i64 0
  %19 = getelementptr inbounds nuw %struct.subset_t, ptr %11, i32 0, i32 0
  %20 = getelementptr inbounds nuw %struct.subset_d, ptr %19, i32 0, i32 0
  store ptr %18, ptr %20, align 8, !tbaa !39
  %21 = getelementptr inbounds [32 x i64], ptr %13, i64 0, i64 0
  %22 = getelementptr inbounds nuw %struct.subset_t, ptr %11, i32 0, i32 1
  %23 = getelementptr inbounds nuw %struct.subset_d, ptr %22, i32 0, i32 0
  store ptr %21, ptr %23, align 8, !tbaa !42
  %24 = getelementptr inbounds [32 x i64], ptr %14, i64 0, i64 0
  %25 = getelementptr inbounds nuw %struct.subset_t, ptr %11, i32 0, i32 3
  %26 = getelementptr inbounds nuw %struct.subset_d, ptr %25, i32 0, i32 0
  store ptr %24, ptr %26, align 8, !tbaa !43
  %27 = getelementptr inbounds [32 x i64], ptr %15, i64 0, i64 0
  %28 = getelementptr inbounds nuw %struct.subset_t, ptr %11, i32 0, i32 2
  %29 = getelementptr inbounds nuw %struct.subset_d, ptr %28, i32 0, i32 0
  store ptr %27, ptr %29, align 8, !tbaa !44
  store i32 0, ptr %16, align 4, !tbaa !4
  br label %30

30:                                               ; preds = %69, %4
  %31 = load i32, ptr %16, align 4, !tbaa !4
  %32 = load i32, ptr %8, align 4, !tbaa !4
  %33 = icmp slt i32 %31, %32
  br i1 %33, label %34, label %72

34:                                               ; preds = %30
  %35 = getelementptr inbounds nuw %struct.subset_t, ptr %11, i32 0, i32 1
  %36 = getelementptr inbounds nuw %struct.subset_d, ptr %35, i32 0, i32 0
  %37 = load ptr, ptr %36, align 8, !tbaa !42
  %38 = load i32, ptr %16, align 4, !tbaa !4
  %39 = sext i32 %38 to i64
  %40 = getelementptr inbounds i64, ptr %37, i64 %39
  store i64 1, ptr %40, align 8, !tbaa !13
  %41 = getelementptr inbounds nuw %struct.subset_t, ptr %11, i32 0, i32 2
  %42 = getelementptr inbounds nuw %struct.subset_d, ptr %41, i32 0, i32 0
  %43 = load ptr, ptr %42, align 8, !tbaa !44
  %44 = load i32, ptr %16, align 4, !tbaa !4
  %45 = sext i32 %44 to i64
  %46 = getelementptr inbounds i64, ptr %43, i64 %45
  store i64 1, ptr %46, align 8, !tbaa !13
  %47 = load ptr, ptr %6, align 8, !tbaa !35
  %48 = load i32, ptr %16, align 4, !tbaa !4
  %49 = sext i32 %48 to i64
  %50 = getelementptr inbounds i64, ptr %47, i64 %49
  %51 = load i64, ptr %50, align 8, !tbaa !13
  %52 = getelementptr inbounds nuw %struct.subset_t, ptr %11, i32 0, i32 0
  %53 = getelementptr inbounds nuw %struct.subset_d, ptr %52, i32 0, i32 0
  %54 = load ptr, ptr %53, align 8, !tbaa !39
  %55 = load i32, ptr %16, align 4, !tbaa !4
  %56 = sext i32 %55 to i64
  %57 = getelementptr inbounds i64, ptr %54, i64 %56
  store i64 %51, ptr %57, align 8, !tbaa !13
  %58 = load ptr, ptr %7, align 8, !tbaa !35
  %59 = load i32, ptr %16, align 4, !tbaa !4
  %60 = sext i32 %59 to i64
  %61 = getelementptr inbounds i64, ptr %58, i64 %60
  %62 = load i64, ptr %61, align 8, !tbaa !13
  %63 = getelementptr inbounds nuw %struct.subset_t, ptr %11, i32 0, i32 3
  %64 = getelementptr inbounds nuw %struct.subset_d, ptr %63, i32 0, i32 0
  %65 = load ptr, ptr %64, align 8, !tbaa !43
  %66 = load i32, ptr %16, align 4, !tbaa !4
  %67 = sext i32 %66 to i64
  %68 = getelementptr inbounds i64, ptr %65, i64 %67
  store i64 %62, ptr %68, align 8, !tbaa !13
  br label %69

69:                                               ; preds = %34
  %70 = load i32, ptr %16, align 4, !tbaa !4
  %71 = add nsw i32 %70, 1
  store i32 %71, ptr %16, align 4, !tbaa !4
  br label %30, !llvm.loop !45

72:                                               ; preds = %30
  call void @llvm.memset.p0.i64(ptr align 8 %9, i8 0, i64 1120, i1 false)
  %73 = getelementptr inbounds nuw %struct.h5tools_context_t, ptr %9, i32 0, i32 16
  store ptr %11, ptr %73, align 8, !tbaa !46
  call void @llvm.memset.p0.i64(ptr align 8 %10, i8 0, i64 456, i1 false)
  %74 = load i8, ptr @g_simple_output, align 1, !tbaa !15, !range !17, !noundef !18
  %75 = trunc i8 %74 to i1
  br i1 %75, label %76, label %98

76:                                               ; preds = %72
  %77 = getelementptr inbounds nuw %struct.h5tool_format_t, ptr %10, i32 0, i32 40
  store ptr @.str.107, ptr %77, align 8, !tbaa !49
  %78 = getelementptr inbounds nuw %struct.h5tool_format_t, ptr %10, i32 0, i32 41
  store i32 65535, ptr %78, align 8, !tbaa !51
  %79 = getelementptr inbounds nuw %struct.h5tool_format_t, ptr %10, i32 0, i32 42
  store i64 1, ptr %79, align 8, !tbaa !52
  %80 = getelementptr inbounds nuw %struct.h5tool_format_t, ptr %10, i32 0, i32 48
  store i32 0, ptr %80, align 8, !tbaa !53
  %81 = getelementptr inbounds nuw %struct.h5tool_format_t, ptr %10, i32 0, i32 43
  store ptr @.str.108, ptr %81, align 8, !tbaa !54
  %82 = getelementptr inbounds nuw %struct.h5tool_format_t, ptr %10, i32 0, i32 45
  store ptr @.str.109, ptr %82, align 8, !tbaa !55
  %83 = getelementptr inbounds nuw %struct.h5tool_format_t, ptr %10, i32 0, i32 21
  store ptr @.str.107, ptr %83, align 8, !tbaa !56
  %84 = getelementptr inbounds nuw %struct.h5tool_format_t, ptr %10, i32 0, i32 23
  store ptr @.str.107, ptr %84, align 8, !tbaa !57
  %85 = getelementptr inbounds nuw %struct.h5tool_format_t, ptr %10, i32 0, i32 22
  store ptr @.str.110, ptr %85, align 8, !tbaa !58
  %86 = getelementptr inbounds nuw %struct.h5tool_format_t, ptr %10, i32 0, i32 27
  store ptr @.str.107, ptr %86, align 8, !tbaa !59
  %87 = getelementptr inbounds nuw %struct.h5tool_format_t, ptr %10, i32 0, i32 28
  store ptr @.str.107, ptr %87, align 8, !tbaa !60
  %88 = getelementptr inbounds nuw %struct.h5tool_format_t, ptr %10, i32 0, i32 26
  store ptr @.str.110, ptr %88, align 8, !tbaa !61
  %89 = load ptr, ptr @g_listv, align 8, !tbaa !25
  %90 = getelementptr inbounds nuw %struct.h5tool_format_t, ptr %10, i32 0, i32 30
  store ptr %89, ptr %90, align 8, !tbaa !62
  %91 = load i8, ptr @g_label, align 1, !tbaa !15, !range !17, !noundef !18
  %92 = trunc i8 %91 to i1
  br i1 %92, label %93, label %95

93:                                               ; preds = %76
  %94 = getelementptr inbounds nuw %struct.h5tool_format_t, ptr %10, i32 0, i32 25
  store ptr @.str.111, ptr %94, align 8, !tbaa !63
  br label %95

95:                                               ; preds = %93, %76
  %96 = getelementptr inbounds nuw %struct.h5tool_format_t, ptr %10, i32 0, i32 36
  store ptr @.str.110, ptr %96, align 8, !tbaa !64
  %97 = getelementptr inbounds nuw %struct.h5tool_format_t, ptr %10, i32 0, i32 19
  store i32 1, ptr %97, align 4, !tbaa !65
  br label %120

98:                                               ; preds = %72
  %99 = getelementptr inbounds nuw %struct.h5tool_format_t, ptr %10, i32 0, i32 40
  store ptr @.str.112, ptr %99, align 8, !tbaa !49
  %100 = load i32, ptr @g_display_width, align 4, !tbaa !4
  %101 = icmp ne i32 %100, 0
  br i1 %101, label %105, label %102

102:                                              ; preds = %98
  %103 = getelementptr inbounds nuw %struct.h5tool_format_t, ptr %10, i32 0, i32 41
  store i32 65535, ptr %103, align 8, !tbaa !51
  %104 = getelementptr inbounds nuw %struct.h5tool_format_t, ptr %10, i32 0, i32 42
  store i64 1, ptr %104, align 8, !tbaa !52
  br label %108

105:                                              ; preds = %98
  %106 = load i32, ptr @g_display_width, align 4, !tbaa !4
  %107 = getelementptr inbounds nuw %struct.h5tool_format_t, ptr %10, i32 0, i32 41
  store i32 %106, ptr %107, align 8, !tbaa !51
  br label %108

108:                                              ; preds = %105, %102
  %109 = getelementptr inbounds nuw %struct.h5tool_format_t, ptr %10, i32 0, i32 48
  store i32 1, ptr %109, align 8, !tbaa !53
  %110 = load ptr, ptr @g_listv, align 8, !tbaa !25
  %111 = getelementptr inbounds nuw %struct.h5tool_format_t, ptr %10, i32 0, i32 30
  store ptr %110, ptr %111, align 8, !tbaa !62
  %112 = load i8, ptr @g_label, align 1, !tbaa !15, !range !17, !noundef !18
  %113 = trunc i8 %112 to i1
  br i1 %113, label %114, label %116

114:                                              ; preds = %108
  %115 = getelementptr inbounds nuw %struct.h5tool_format_t, ptr %10, i32 0, i32 25
  store ptr @.str.111, ptr %115, align 8, !tbaa !63
  br label %116

116:                                              ; preds = %114, %108
  %117 = getelementptr inbounds nuw %struct.h5tool_format_t, ptr %10, i32 0, i32 43
  store ptr @.str.113, ptr %117, align 8, !tbaa !54
  %118 = getelementptr inbounds nuw %struct.h5tool_format_t, ptr %10, i32 0, i32 45
  store ptr @.str.114, ptr %118, align 8, !tbaa !55
  %119 = getelementptr inbounds nuw %struct.h5tool_format_t, ptr %10, i32 0, i32 20
  store i32 8, ptr %119, align 8, !tbaa !66
  br label %120

120:                                              ; preds = %116, %95
  %121 = call i32 (ptr, i64, ptr, ...) @snprintf(ptr noundef @doprint.fmt_float, i64 noundef 16, ptr noundef @.str.115, i32 noundef 6) #11
  %122 = getelementptr inbounds nuw %struct.h5tool_format_t, ptr %10, i32 0, i32 12
  store ptr @doprint.fmt_float, ptr %122, align 8, !tbaa !67
  %123 = call i32 (ptr, i64, ptr, ...) @snprintf(ptr noundef @doprint.fmt_double, i64 noundef 16, ptr noundef @.str.115, i32 noundef 15) #11
  %124 = getelementptr inbounds nuw %struct.h5tool_format_t, ptr %10, i32 0, i32 13
  store ptr @doprint.fmt_double, ptr %124, align 8, !tbaa !68
  %125 = call i32 (ptr, i64, ptr, ...) @snprintf(ptr noundef @doprint.fmt_ldouble, i64 noundef 16, ptr noundef @.str.116, i32 noundef 18) #11
  %126 = getelementptr inbounds nuw %struct.h5tool_format_t, ptr %10, i32 0, i32 14
  store ptr @doprint.fmt_ldouble, ptr %126, align 8, !tbaa !69
  %127 = call i32 (ptr, i64, ptr, ...) @snprintf(ptr noundef @doprint.fmt_float_complex, i64 noundef 16, ptr noundef @.str.117, i32 noundef 6, i32 noundef 6) #11
  %128 = getelementptr inbounds nuw %struct.h5tool_format_t, ptr %10, i32 0, i32 15
  store ptr @doprint.fmt_float_complex, ptr %128, align 8, !tbaa !70
  %129 = call i32 (ptr, i64, ptr, ...) @snprintf(ptr noundef @doprint.fmt_double_complex, i64 noundef 32, ptr noundef @.str.117, i32 noundef 15, i32 noundef 15) #11
  %130 = getelementptr inbounds nuw %struct.h5tool_format_t, ptr %10, i32 0, i32 16
  store ptr @doprint.fmt_double_complex, ptr %130, align 8, !tbaa !71
  %131 = call i32 (ptr, i64, ptr, ...) @snprintf(ptr noundef @doprint.fmt_ldouble_complex, i64 noundef 32, ptr noundef @.str.118, i32 noundef 18, i32 noundef 18) #11
  %132 = getelementptr inbounds nuw %struct.h5tool_format_t, ptr %10, i32 0, i32 17
  store ptr @doprint.fmt_ldouble_complex, ptr %132, align 8, !tbaa !72
  %133 = getelementptr inbounds nuw %struct.h5tool_format_t, ptr %10, i32 0, i32 54
  store ptr @.str.119, ptr %133, align 8, !tbaa !73
  %134 = getelementptr inbounds nuw %struct.h5tool_format_t, ptr %10, i32 0, i32 53
  store i32 0, ptr %134, align 8, !tbaa !74
  %135 = getelementptr inbounds nuw %struct.h5tool_format_t, ptr %10, i32 0, i32 52
  store ptr @.str.120, ptr %135, align 8, !tbaa !75
  %136 = getelementptr inbounds nuw %struct.h5tool_format_t, ptr %10, i32 0, i32 51
  store i32 0, ptr %136, align 4, !tbaa !76
  %137 = getelementptr inbounds nuw %struct.h5tool_format_t, ptr %10, i32 0, i32 55
  store ptr @.str.121, ptr %137, align 8, !tbaa !77
  %138 = getelementptr inbounds nuw %struct.h5tool_format_t, ptr %10, i32 0, i32 56
  store ptr @.str.122, ptr %138, align 8, !tbaa !78
  %139 = getelementptr inbounds nuw %struct.h5tool_format_t, ptr %10, i32 0, i32 49
  store ptr @.str.107, ptr %139, align 8, !tbaa !79
  %140 = load i8, ptr @g_display_hex, align 1, !tbaa !15, !range !17, !noundef !18
  %141 = trunc i8 %140 to i1
  br i1 %141, label %142, label %144

142:                                              ; preds = %120
  %143 = getelementptr inbounds nuw %struct.h5tool_format_t, ptr %10, i32 0, i32 0
  store i8 1, ptr %143, align 8, !tbaa !80
  br label %144

144:                                              ; preds = %142, %120
  %145 = load ptr, ptr @stdout, align 8, !tbaa !20
  %146 = load i64, ptr %5, align 8, !tbaa !13
  %147 = call i32 @h5tools_dump_dset(ptr noundef %145, ptr noundef %10, ptr noundef %9, i64 noundef %146)
  store i32 %147, ptr %17, align 4, !tbaa !4
  %148 = icmp slt i32 %147, 0
  br i1 %148, label %149, label %150

149:                                              ; preds = %144
  call void (ptr, ...) @error_msg(ptr noundef @.str.123)
  br label %150

150:                                              ; preds = %149, %144
  %151 = load ptr, ptr @stdout, align 8, !tbaa !20
  %152 = call i32 (ptr, ptr, ...) @fprintf(ptr noundef %151, ptr noundef @.str.53) #11
  %153 = load i32, ptr %17, align 4, !tbaa !4
  call void @llvm.lifetime.end.p0(i64 4, ptr %17) #11
  call void @llvm.lifetime.end.p0(i64 4, ptr %16) #11
  call void @llvm.lifetime.end.p0(i64 256, ptr %15) #11
  call void @llvm.lifetime.end.p0(i64 256, ptr %14) #11
  call void @llvm.lifetime.end.p0(i64 256, ptr %13) #11
  call void @llvm.lifetime.end.p0(i64 256, ptr %12) #11
  call void @llvm.lifetime.end.p0(i64 64, ptr %11) #11
  call void @llvm.lifetime.end.p0(i64 456, ptr %10) #11
  call void @llvm.lifetime.end.p0(i64 1120, ptr %9) #11
  ret i32 %153
}