; Function Attrs: nounwind uwtable
define internal fastcc i32 @doprint(i64 noundef range(i64 0, -9223372036854775808) %0, ptr noundef nonnull readonly captures(none) %1, ptr noundef nonnull readonly captures(none) %2, i32 noundef range(i32 0, -2147483648) %3) unnamed_addr #9 {
  %5 = alloca %struct.h5tools_context_t, align 8
  %6 = alloca %struct.h5tool_format_t, align 8
  %7 = alloca %struct.subset_t, align 8
  %8 = alloca [32 x i64], align 16
  %9 = alloca [32 x i64], align 16
  %10 = alloca [32 x i64], align 16
  %11 = alloca [32 x i64], align 16
  call void @llvm.lifetime.start.p0(i64 1120, ptr nonnull %5) #20
  call void @llvm.lifetime.start.p0(i64 456, ptr nonnull %6) #20
  call void @llvm.lifetime.start.p0(i64 64, ptr nonnull %7) #20
  call void @llvm.lifetime.start.p0(i64 256, ptr nonnull %8) #20
  call void @llvm.lifetime.start.p0(i64 256, ptr nonnull %9) #20
  call void @llvm.lifetime.start.p0(i64 256, ptr nonnull %10) #20
  call void @llvm.lifetime.start.p0(i64 256, ptr nonnull %11) #20
  store ptr %8, ptr %7, align 8, !tbaa !37
  %12 = getelementptr inbounds nuw i8, ptr %7, i64 16
  store ptr %9, ptr %12, align 8, !tbaa !41
  %13 = getelementptr inbounds nuw i8, ptr %7, i64 48
  store ptr %10, ptr %13, align 8, !tbaa !42
  %14 = getelementptr inbounds nuw i8, ptr %7, i64 32
  store ptr %11, ptr %14, align 8, !tbaa !43
  %.not19 = icmp eq i32 %3, 0
  br i1 %.not19, label %._crit_edge, label %.lr.ph.preheader

.lr.ph.preheader:                                 ; preds = %4
  %15 = zext nneg i32 %3 to i64
  %16 = shl nuw nsw i64 %15, 3
  call void @llvm.memcpy.p0.p0.i64(ptr nonnull align 16 %8, ptr nonnull align 8 %1, i64 %16, i1 false), !tbaa !18
  call void @llvm.memcpy.p0.p0.i64(ptr nonnull align 16 %10, ptr nonnull align 8 %2, i64 %16, i1 false), !tbaa !18
  br label %.lr.ph

.lr.ph:                                           ; preds = %.lr.ph.preheader, %.lr.ph
  %indvars.iv = phi i64 [ 0, %.lr.ph.preheader ], [ %indvars.iv.next, %.lr.ph ]
  %17 = getelementptr inbounds nuw i64, ptr %9, i64 %indvars.iv
  store i64 1, ptr %17, align 8, !tbaa !18
  %18 = getelementptr inbounds nuw i64, ptr %11, i64 %indvars.iv
  store i64 1, ptr %18, align 8, !tbaa !18
  %indvars.iv.next = add nuw nsw i64 %indvars.iv, 1
  %exitcond.not = icmp eq i64 %indvars.iv.next, %15
  br i1 %exitcond.not, label %._crit_edge, label %.lr.ph, !llvm.loop !44

._crit_edge:                                      ; preds = %.lr.ph, %4
  call void @llvm.memset.p0.i64(ptr noundef nonnull align 8 dereferenceable(1120) %5, i8 0, i64 1120, i1 false)
  %19 = getelementptr inbounds nuw i8, ptr %5, i64 1104
  store ptr %7, ptr %19, align 8, !tbaa !45
  call void @llvm.memset.p0.i64(ptr noundef nonnull align 8 dereferenceable(456) %6, i8 0, i64 456, i1 false)
  %.b15 = load i1, ptr @g_simple_output, align 1
  %20 = getelementptr inbounds nuw i8, ptr %6, i64 312
  br i1 %.b15, label %21, label %39

21:                                               ; preds = %._crit_edge
  store ptr @.str.107, ptr %20, align 8, !tbaa !48
  %22 = getelementptr inbounds nuw i8, ptr %6, i64 320
  store i32 65535, ptr %22, align 8, !tbaa !50
  %23 = getelementptr inbounds nuw i8, ptr %6, i64 328
  store i64 1, ptr %23, align 8, !tbaa !51
  %24 = getelementptr inbounds nuw i8, ptr %6, i64 336
  store ptr @.str.108, ptr %24, align 8, !tbaa !52
  %25 = getelementptr inbounds nuw i8, ptr %6, i64 352
  store ptr @.str.109, ptr %25, align 8, !tbaa !53
  %26 = getelementptr inbounds nuw i8, ptr %6, i64 160
  store ptr @.str.107, ptr %26, align 8, !tbaa !54
  %27 = getelementptr inbounds nuw i8, ptr %6, i64 176
  store ptr @.str.107, ptr %27, align 8, !tbaa !55
  %28 = getelementptr inbounds nuw i8, ptr %6, i64 168
  store ptr @.str.110, ptr %28, align 8, !tbaa !56
  %29 = getelementptr inbounds nuw i8, ptr %6, i64 208
  store ptr @.str.107, ptr %29, align 8, !tbaa !57
  %30 = getelementptr inbounds nuw i8, ptr %6, i64 216
  store ptr @.str.107, ptr %30, align 8, !tbaa !58
  %31 = getelementptr inbounds nuw i8, ptr %6, i64 200
  store ptr @.str.110, ptr %31, align 8, !tbaa !59
  %32 = load ptr, ptr @g_listv, align 8, !tbaa !28
  %33 = getelementptr inbounds nuw i8, ptr %6, i64 232
  store ptr %32, ptr %33, align 8, !tbaa !60
  %.b1417 = load i1, ptr @g_label, align 1
  br i1 %.b1417, label %34, label %36

34:                                               ; preds = %21
  %35 = getelementptr inbounds nuw i8, ptr %6, i64 192
  store ptr @.str.111, ptr %35, align 8, !tbaa !61
  br label %36

36:                                               ; preds = %34, %21
  %37 = getelementptr inbounds nuw i8, ptr %6, i64 280
  store ptr @.str.110, ptr %37, align 8, !tbaa !62
  %38 = getelementptr inbounds nuw i8, ptr %6, i64 148
  store i32 1, ptr %38, align 4, !tbaa !63
  br label %54

39:                                               ; preds = %._crit_edge
  store ptr @.str.112, ptr %20, align 8, !tbaa !48
  %40 = load i32, ptr @g_display_width, align 4, !tbaa !9
  %.not = icmp eq i32 %40, 0
  br i1 %.not, label %41, label %43

41:                                               ; preds = %39
  %42 = getelementptr inbounds nuw i8, ptr %6, i64 328
  store i64 1, ptr %42, align 8, !tbaa !51
  br label %43

43:                                               ; preds = %39, %41
  %.sink = phi i32 [ 65535, %41 ], [ %40, %39 ]
  %44 = getelementptr inbounds nuw i8, ptr %6, i64 320
  store i32 %.sink, ptr %44, align 8, !tbaa !50
  %45 = getelementptr inbounds nuw i8, ptr %6, i64 376
  store i32 1, ptr %45, align 8, !tbaa !64
  %46 = load ptr, ptr @g_listv, align 8, !tbaa !28
  %47 = getelementptr inbounds nuw i8, ptr %6, i64 232
  store ptr %46, ptr %47, align 8, !tbaa !60
  %.b1316 = load i1, ptr @g_label, align 1
  br i1 %.b1316, label %48, label %50

48:                                               ; preds = %43
  %49 = getelementptr inbounds nuw i8, ptr %6, i64 192
  store ptr @.str.111, ptr %49, align 8, !tbaa !61
  br label %50

50:                                               ; preds = %48, %43
  %51 = getelementptr inbounds nuw i8, ptr %6, i64 336
  store ptr @.str.113, ptr %51, align 8, !tbaa !52
  %52 = getelementptr inbounds nuw i8, ptr %6, i64 352
  store ptr @.str.114, ptr %52, align 8, !tbaa !53
  %53 = getelementptr inbounds nuw i8, ptr %6, i64 152
  store i32 8, ptr %53, align 8, !tbaa !65
  br label %54

54:                                               ; preds = %50, %36
  %55 = call i32 (ptr, i64, ptr, ...) @snprintf(ptr noundef nonnull dereferenceable(1) @doprint.fmt_float, i64 noundef 16, ptr noundef nonnull @.str.115, i32 noundef 6) #20
  %56 = getelementptr inbounds nuw i8, ptr %6, i64 96
  store ptr @doprint.fmt_float, ptr %56, align 8, !tbaa !66
  %57 = call i32 (ptr, i64, ptr, ...) @snprintf(ptr noundef nonnull dereferenceable(1) @doprint.fmt_double, i64 noundef 16, ptr noundef nonnull @.str.115, i32 noundef 15) #20
  %58 = getelementptr inbounds nuw i8, ptr %6, i64 104
  store ptr @doprint.fmt_double, ptr %58, align 8, !tbaa !67
  %59 = call i32 (ptr, i64, ptr, ...) @snprintf(ptr noundef nonnull dereferenceable(1) @doprint.fmt_ldouble, i64 noundef 16, ptr noundef nonnull @.str.116, i32 noundef 18) #20
  %60 = getelementptr inbounds nuw i8, ptr %6, i64 112
  store ptr @doprint.fmt_ldouble, ptr %60, align 8, !tbaa !68
  %61 = call i32 (ptr, i64, ptr, ...) @snprintf(ptr noundef nonnull dereferenceable(1) @doprint.fmt_float_complex, i64 noundef 16, ptr noundef nonnull @.str.117, i32 noundef 6, i32 noundef 6) #20
  %62 = getelementptr inbounds nuw i8, ptr %6, i64 120
  store ptr @doprint.fmt_float_complex, ptr %62, align 8, !tbaa !69
  %63 = call i32 (ptr, i64, ptr, ...) @snprintf(ptr noundef nonnull dereferenceable(1) @doprint.fmt_double_complex, i64 noundef 32, ptr noundef nonnull @.str.117, i32 noundef 15, i32 noundef 15) #20
  %64 = getelementptr inbounds nuw i8, ptr %6, i64 128
  store ptr @doprint.fmt_double_complex, ptr %64, align 8, !tbaa !70
  %65 = call i32 (ptr, i64, ptr, ...) @snprintf(ptr noundef nonnull dereferenceable(1) @doprint.fmt_ldouble_complex, i64 noundef 32, ptr noundef nonnull @.str.118, i32 noundef 18, i32 noundef 18) #20
  %66 = getelementptr inbounds nuw i8, ptr %6, i64 136
  store ptr @doprint.fmt_ldouble_complex, ptr %66, align 8, !tbaa !71
  %67 = getelementptr inbounds nuw i8, ptr %6, i64 416
  store ptr @.str.119, ptr %67, align 8, !tbaa !72
  %68 = getelementptr inbounds nuw i8, ptr %6, i64 408
  store i32 0, ptr %68, align 8, !tbaa !73
  %69 = getelementptr inbounds nuw i8, ptr %6, i64 400
  store ptr @.str.120, ptr %69, align 8, !tbaa !74
  %70 = getelementptr inbounds nuw i8, ptr %6, i64 396
  store i32 0, ptr %70, align 4, !tbaa !75
  %71 = getelementptr inbounds nuw i8, ptr %6, i64 424
  store ptr @.str.121, ptr %71, align 8, !tbaa !76
  %72 = getelementptr inbounds nuw i8, ptr %6, i64 432
  store ptr @.str.122, ptr %72, align 8, !tbaa !77
  %73 = getelementptr inbounds nuw i8, ptr %6, i64 384
  store ptr @.str.107, ptr %73, align 8, !tbaa !78
  %74 = load ptr, ptr @stdout, align 8, !tbaa !24
  %75 = call i32 @h5tools_dump_dset(ptr noundef %74, ptr noundef nonnull %6, ptr noundef nonnull %5, i64 noundef %0) #20
  %76 = icmp slt i32 %75, 0
  br i1 %76, label %77, label %78

77:                                               ; preds = %54
  call void (ptr, ...) @error_msg(ptr noundef nonnull @.str.123) #20
  br label %78

78:                                               ; preds = %77, %54
  %79 = load ptr, ptr @stdout, align 8, !tbaa !24
  %fputc = call i32 @fputc(i32 10, ptr %79)
  call void @llvm.lifetime.end.p0(i64 256, ptr nonnull %11) #20
  call void @llvm.lifetime.end.p0(i64 256, ptr nonnull %10) #20
  call void @llvm.lifetime.end.p0(i64 256, ptr nonnull %9) #20
  call void @llvm.lifetime.end.p0(i64 256, ptr nonnull %8) #20
  call void @llvm.lifetime.end.p0(i64 64, ptr nonnull %7) #20
  call void @llvm.lifetime.end.p0(i64 456, ptr nonnull %6) #20
  call void @llvm.lifetime.end.p0(i64 1120, ptr nonnull %5) #20
  ret i32 %75
}